target datalayout = "e-m:e-p270:32:32-p271:32:32-p272:64:64-i64:64-i128:128-f80:128-n8:16:32:64-S128"
target triple = "x86_64-pc-linux-gnu"

%struct.AVFilterContext = type { ptr, ptr, ptr, ptr, ptr, i32, ptr, ptr, i32, ptr, ptr, i32, i32, ptr, ptr, ptr, ptr, i32, ptr, i32, i32 }
%struct.AudioSurroundContext = type { ptr, %struct.AVChannelLayout, %struct.AVChannelLayout, float, float, [9 x float], [9 x float], i32, float, float, float, i32, i32, float, float, float, float, [9 x float], [9 x float], ptr, ptr, i32, i32, i32, i32, float, float, i32, i32, ptr, ptr, ptr, ptr, ptr, ptr, ptr, ptr, ptr, ptr, ptr, ptr, ptr, ptr, ptr, ptr, ptr, ptr, ptr, i32, i32, ptr, ptr, ptr, ptr, ptr, ptr, ptr, ptr, ptr }
%struct.AVChannelLayout = type { i32, i32, %union.anon.1, ptr }
%union.anon.1 = type { i64 }
%struct.AVRational = type { i32, i32 }
%struct.AVFrame = type { [8 x ptr], [8 x i32], ptr, i32, i32, i32, i32, i32, %struct.AVRational, i64, i64, %struct.AVRational, i32, ptr, i32, i32, [8 x ptr], ptr, i32, ptr, i32, i32, i32, i32, i32, i32, i32, i64, ptr, i32, ptr, ptr, i64, i64, i64, i64, ptr, %struct.AVChannelLayout, i64 }

; Function Attrs: nounwind uwtable
define internal i32 @fft_channel(ptr noundef %0, ptr noundef %1, i32 noundef %2) #1 {
  %4 = alloca ptr, align 8
  %5 = alloca ptr, align 8
  %6 = alloca i32, align 4
  %7 = alloca ptr, align 8
  %8 = alloca ptr, align 8
  %9 = alloca ptr, align 8
  %10 = alloca ptr, align 8
  %11 = alloca i32, align 4
  %12 = alloca float, align 4
  %13 = alloca i32, align 4
  %14 = alloca i32, align 4
  store ptr %0, ptr %4, align 8, !tbaa !4
  store ptr %1, ptr %5, align 8, !tbaa !73
  store i32 %2, ptr %6, align 4, !tbaa !47
  call void @llvm.lifetime.start.p0(i64 8, ptr %7) #12
  %15 = load ptr, ptr %4, align 8, !tbaa !4
  %16 = getelementptr inbounds nuw %struct.AVFilterContext, ptr %15, i32 0, i32 9
  %17 = load ptr, ptr %16, align 8, !tbaa !9
  store ptr %17, ptr %7, align 8, !tbaa !22
  call void @llvm.lifetime.start.p0(i64 8, ptr %8) #12
  %18 = load ptr, ptr %7, align 8, !tbaa !22
  %19 = getelementptr inbounds nuw %struct.AudioSurroundContext, ptr %18, i32 0, i32 31
  %20 = load ptr, ptr %19, align 8, !tbaa !84
  %21 = getelementptr inbounds nuw %struct.AVFrame, ptr %20, i32 0, i32 2
  %22 = load ptr, ptr %21, align 8, !tbaa !115
  %23 = load i32, ptr %6, align 4, !tbaa !47
  %24 = sext i32 %23 to i64
  %25 = getelementptr inbounds ptr, ptr %22, i64 %24
  %26 = load ptr, ptr %25, align 8, !tbaa !68
  store ptr %26, ptr %8, align 8, !tbaa !51
  call void @llvm.lifetime.start.p0(i64 8, ptr %9) #12
  %27 = load ptr, ptr %7, align 8, !tbaa !22
  %28 = getelementptr inbounds nuw %struct.AudioSurroundContext, ptr %27, i32 0, i32 38
  %29 = load ptr, ptr %28, align 8, !tbaa !83
  %30 = getelementptr inbounds nuw %struct.AVFrame, ptr %29, i32 0, i32 2
  %31 = load ptr, ptr %30, align 8, !tbaa !115
  %32 = load i32, ptr %6, align 4, !tbaa !47
  %33 = sext i32 %32 to i64
  %34 = getelementptr inbounds ptr, ptr %31, i64 %33
  %35 = load ptr, ptr %34, align 8, !tbaa !68
  store ptr %35, ptr %9, align 8, !tbaa !51
  call void @llvm.lifetime.start.p0(i64 8, ptr %10) #12
  %36 = load ptr, ptr %7, align 8, !tbaa !22
  %37 = getelementptr inbounds nuw %struct.AudioSurroundContext, ptr %36, i32 0, i32 54
  %38 = load ptr, ptr %37, align 8, !tbaa !43
  store ptr %38, ptr %10, align 8, !tbaa !51
  call void @llvm.lifetime.start.p0(i64 4, ptr %11) #12
  %39 = load ptr, ptr %7, align 8, !tbaa !22
  %40 = getelementptr inbounds nuw %struct.AudioSurroundContext, ptr %39, i32 0, i32 11
  %41 = load i32, ptr %40, align 8, !tbaa !42
  %42 = load ptr, ptr %7, align 8, !tbaa !22
  %43 = getelementptr inbounds nuw %struct.AudioSurroundContext, ptr %42, i32 0, i32 49
  %44 = load i32, ptr %43, align 4, !tbaa !50
  %45 = sub nsw i32 %41, %44
  store i32 %45, ptr %11, align 4, !tbaa !47
  call void @llvm.lifetime.start.p0(i64 4, ptr %12) #12
  %46 = load ptr, ptr %7, align 8, !tbaa !22
  %47 = getelementptr inbounds nuw %struct.AudioSurroundContext, ptr %46, i32 0, i32 19
  %48 = load ptr, ptr %47, align 8, !tbaa !82
  %49 = load i32, ptr %6, align 4, !tbaa !47
  %50 = sext i32 %49 to i64
  %51 = getelementptr inbounds float, ptr %48, i64 %50
  %52 = load float, ptr %51, align 4, !tbaa !46
  store float %52, ptr %12, align 4, !tbaa !46
  call void @llvm.lifetime.start.p0(i64 4, ptr %13) #12
  %53 = load ptr, ptr %7, align 8, !tbaa !22
  %54 = getelementptr inbounds nuw %struct.AudioSurroundContext, ptr %53, i32 0, i32 11
  %55 = load i32, ptr %54, align 8, !tbaa !42
  store i32 %55, ptr %13, align 4, !tbaa !47
  %56 = load ptr, ptr %8, align 8, !tbaa !51
  %57 = load ptr, ptr %8, align 8, !tbaa !51
  %58 = load ptr, ptr %7, align 8, !tbaa !22
  %59 = getelementptr inbounds nuw %struct.AudioSurroundContext, ptr %58, i32 0, i32 49
  %60 = load i32, ptr %59, align 4, !tbaa !50
  %61 = sext i32 %60 to i64
  %62 = getelementptr inbounds float, ptr %57, i64 %61
  %63 = load i32, ptr %11, align 4, !tbaa !47
  %64 = sext i32 %63 to i64
  %65 = mul i64 %64, 4
  call void @llvm.memmove.p0.p0.i64(ptr align 4 %56, ptr align 4 %62, i64 %65, i1 false)
  %66 = load ptr, ptr %8, align 8, !tbaa !51
  %67 = load i32, ptr %11, align 4, !tbaa !47
  %68 = sext i32 %67 to i64
  %69 = getelementptr inbounds float, ptr %66, i64 %68
  %70 = load ptr, ptr %5, align 8, !tbaa !73
  %71 = getelementptr inbounds nuw %struct.AVFrame, ptr %70, i32 0, i32 2
  %72 = load ptr, ptr %71, align 8, !tbaa !115
  %73 = load i32, ptr %6, align 4, !tbaa !47
  %74 = sext i32 %73 to i64
  %75 = getelementptr inbounds ptr, ptr %72, i64 %74
  %76 = load ptr, ptr %75, align 8, !tbaa !68
  %77 = load ptr, ptr %5, align 8, !tbaa !73
  %78 = getelementptr inbounds nuw %struct.AVFrame, ptr %77, i32 0, i32 5
  %79 = load i32, ptr %78, align 8, !tbaa !172
  %80 = sext i32 %79 to i64
  %81 = mul i64 %80, 4
  call void @llvm.memcpy.p0.p0.i64(ptr align 4 %69, ptr align 1 %76, i64 %81, i1 false)
  %82 = load ptr, ptr %8, align 8, !tbaa !51
  %83 = load i32, ptr %11, align 4, !tbaa !47
  %84 = load ptr, ptr %5, align 8, !tbaa !73
  %85 = getelementptr inbounds nuw %struct.AVFrame, ptr %84, i32 0, i32 5
  %86 = load i32, ptr %85, align 8, !tbaa !172
  %87 = add nsw i32 %83, %86
  %88 = sext i32 %87 to i64
  %89 = getelementptr inbounds float, ptr %82, i64 %88
  %90 = load ptr, ptr %7, align 8, !tbaa !22
  %91 = getelementptr inbounds nuw %struct.AudioSurroundContext, ptr %90, i32 0, i32 49
  %92 = load i32, ptr %91, align 4, !tbaa !50
  %93 = load ptr, ptr %5, align 8, !tbaa !73
  %94 = getelementptr inbounds nuw %struct.AVFrame, ptr %93, i32 0, i32 5
  %95 = load i32, ptr %94, align 8, !tbaa !172
  %96 = sub nsw i32 %92, %95
  %97 = sext i32 %96 to i64
  %98 = mul i64 %97, 4
  call void @llvm.memset.p0.i64(ptr align 4 %89, i8 0, i64 %98, i1 false)
  call void @llvm.lifetime.start.p0(i64 4, ptr %14) #12
  store i32 0, ptr %14, align 4, !tbaa !47
  br label %99

99:                                               ; preds = %122, %3
  %100 = load i32, ptr %14, align 4, !tbaa !47
  %101 = load i32, ptr %13, align 4, !tbaa !47
  %102 = icmp slt i32 %100, %101
  br i1 %102, label %104, label %103

103:                                              ; preds = %99
  call void @llvm.lifetime.end.p0(i64 4, ptr %14) #12
  br label %125

104:                                              ; preds = %99
  %105 = load ptr, ptr %8, align 8, !tbaa !51
  %106 = load i32, ptr %14, align 4, !tbaa !47
  %107 = sext i32 %106 to i64
  %108 = getelementptr inbounds float, ptr %105, i64 %107
  %109 = load float, ptr %108, align 4, !tbaa !46
  %110 = load ptr, ptr %10, align 8, !tbaa !51
  %111 = load i32, ptr %14, align 4, !tbaa !47
  %112 = sext i32 %111 to i64
  %113 = getelementptr inbounds float, ptr %110, i64 %112
  %114 = load float, ptr %113, align 4, !tbaa !46
  %115 = fmul nsz float %109, %114
  %116 = load float, ptr %12, align 4, !tbaa !46
  %117 = fmul nsz float %115, %116
  %118 = load ptr, ptr %9, align 8, !tbaa !51
  %119 = load i32, ptr %14, align 4, !tbaa !47
  %120 = sext i32 %119 to i64
  %121 = getelementptr inbounds float, ptr %118, i64 %120
  store float %117, ptr %121, align 4, !tbaa !46
  br label %122

122:                                              ; preds = %104
  %123 = load i32, ptr %14, align 4, !tbaa !47
  %124 = add nsw i32 %123, 1
  store i32 %124, ptr %14, align 4, !tbaa !47
  br label %99, !llvm.loop !177

125:                                              ; preds = %103
  %126 = load ptr, ptr %7, align 8, !tbaa !22
  %127 = getelementptr inbounds nuw %struct.AudioSurroundContext, ptr %126, i32 0, i32 52
  %128 = load ptr, ptr %127, align 8, !tbaa !178
  %129 = load ptr, ptr %7, align 8, !tbaa !22
  %130 = getelementptr inbounds nuw %struct.AudioSurroundContext, ptr %129, i32 0, i32 50
  %131 = load ptr, ptr %130, align 8, !tbaa !57
  %132 = load i32, ptr %6, align 4, !tbaa !47
  %133 = sext i32 %132 to i64
  %134 = getelementptr inbounds ptr, ptr %131, i64 %133
  %135 = load ptr, ptr %134, align 8, !tbaa !179
  %136 = load ptr, ptr %7, align 8, !tbaa !22
  %137 = getelementptr inbounds nuw %struct.AudioSurroundContext, ptr %136, i32 0, i32 32
  %138 = load ptr, ptr %137, align 8, !tbaa !85
  %139 = getelementptr inbounds nuw %struct.AVFrame, ptr %138, i32 0, i32 2
  %140 = load ptr, ptr %139, align 8, !tbaa !115
  %141 = load i32, ptr %6, align 4, !tbaa !47
  %142 = sext i32 %141 to i64
  %143 = getelementptr inbounds ptr, ptr %140, i64 %142
  %144 = load ptr, ptr %143, align 8, !tbaa !68
  %145 = load ptr, ptr %9, align 8, !tbaa !51
  call void %128(ptr noundef %135, ptr noundef %144, ptr noundef %145, i64 noundef 4)
  call void @llvm.lifetime.end.p0(i64 4, ptr %13) #12
  call void @llvm.lifetime.end.p0(i64 4, ptr %12) #12
  call void @llvm.lifetime.end.p0(i64 4, ptr %11) #12
  call void @llvm.lifetime.end.p0(i64 8, ptr %10) #12
  call void @llvm.lifetime.end.p0(i64 8, ptr %9) #12
  call void @llvm.lifetime.end.p0(i64 8, ptr %8) #12
  call void @llvm.lifetime.end.p0(i64 8, ptr %7) #12
  ret i32 0
}

; Function Attrs: nounwind uwtable
define internal i32 @fft_channels(ptr noundef %0, ptr noundef %1, i32 noundef %2, i32 noundef %3) #1 {
  %5 = alloca ptr, align 8
  %6 = alloca ptr, align 8
  %7 = alloca i32, align 4
  %8 = alloca i32, align 4
  %9 = alloca ptr, align 8
  %10 = alloca i32, align 4
  %11 = alloca i32, align 4
  %12 = alloca i32, align 4
  store ptr %0, ptr %5, align 8, !tbaa !4
  store ptr %1, ptr %6, align 8, !tbaa !173
  store i32 %2, ptr %7, align 4, !tbaa !47
  store i32 %3, ptr %8, align 4, !tbaa !47
  call void @llvm.lifetime.start.p0(i64 8, ptr %9) #12
  %13 = load ptr, ptr %6, align 8, !tbaa !173
  store ptr %13, ptr %9, align 8, !tbaa !73
  call void @llvm.lifetime.start.p0(i64 4, ptr %10) #12
  %14 = load ptr, ptr %9, align 8, !tbaa !73
  %15 = getelementptr inbounds nuw %struct.AVFrame, ptr %14, i32 0, i32 37
  %16 = getelementptr inbounds nuw %struct.AVChannelLayout, ptr %15, i32 0, i32 1
  %17 = load i32, ptr %16, align 4, !tbaa !174
  %18 = load i32, ptr %7, align 4, !tbaa !47
  %19 = mul nsw i32 %17, %18
  %20 = load i32, ptr %8, align 4, !tbaa !47
  %21 = sdiv i32 %19, %20
  store i32 %21, ptr %10, align 4, !tbaa !47
  call void @llvm.lifetime.start.p0(i64 4, ptr %11) #12
  %22 = load ptr, ptr %9, align 8, !tbaa !73
  %23 = getelementptr inbounds nuw %struct.AVFrame, ptr %22, i32 0, i32 37
  %24 = getelementptr inbounds nuw %struct.AVChannelLayout, ptr %23, i32 0, i32 1
  %25 = load i32, ptr %24, align 4, !tbaa !174
  %26 = load i32, ptr %7, align 4, !tbaa !47
  %27 = add nsw i32 %26, 1
  %28 = mul nsw i32 %25, %27
  %29 = load i32, ptr %8, align 4, !tbaa !47
  %30 = sdiv i32 %28, %29
  store i32 %30, ptr %11, align 4, !tbaa !47
  call void @llvm.lifetime.start.p0(i64 4, ptr %12) #12
  %31 = load i32, ptr %10, align 4, !tbaa !47
  store i32 %31, ptr %12, align 4, !tbaa !47
  br label %32

32:                                               ; preds = %42, %4
  %33 = load i32, ptr %12, align 4, !tbaa !47
  %34 = load i32, ptr %11, align 4, !tbaa !47
  %35 = icmp slt i32 %33, %34
  br i1 %35, label %37, label %36

36:                                               ; preds = %32
  call void @llvm.lifetime.end.p0(i64 4, ptr %12) #12
  br label %45

37:                                               ; preds = %32
  %38 = load ptr, ptr %5, align 8, !tbaa !4
  %39 = load ptr, ptr %9, align 8, !tbaa !73
  %40 = load i32, ptr %12, align 4, !tbaa !47
  %41 = call i32 @fft_channel(ptr noundef %38, ptr noundef %39, i32 noundef %40)
  br label %42

42:                                               ; preds = %37
  %43 = load i32, ptr %12, align 4, !tbaa !47
  %44 = add nsw i32 %43, 1
  store i32 %44, ptr %12, align 4, !tbaa !47
  br label %32, !llvm.loop !175

45:                                               ; preds = %36
  call void @llvm.lifetime.end.p0(i64 4, ptr %11) #12
  call void @llvm.lifetime.end.p0(i64 4, ptr %10) #12
  call void @llvm.lifetime.end.p0(i64 8, ptr %9) #12
  ret i32 0
}