; Function Attrs: nounwind uwtable
define internal noundef i32 @fft_channels(ptr noundef readonly captures(none) %0, ptr noundef readonly captures(none) %1, i32 noundef %2, i32 noundef %3) #1 {
  %5 = getelementptr inbounds nuw i8, ptr %1, i64 388
  %6 = load i32, ptr %5, align 4, !tbaa !166
  %7 = mul nsw i32 %6, %2
  %8 = sdiv i32 %7, %3
  %9 = add nsw i32 %2, 1
  %10 = mul nsw i32 %6, %9
  %11 = sdiv i32 %10, %3
  %12 = icmp slt i32 %8, %11
  br i1 %12, label %.lr.ph, label %._crit_edge

.lr.ph:                                           ; preds = %4
  %13 = getelementptr i8, ptr %0, i64 72
  %14 = getelementptr inbounds nuw i8, ptr %1, i64 96
  %15 = getelementptr inbounds nuw i8, ptr %1, i64 112
  %16 = sext i32 %8 to i64
  br label %17

._crit_edge:                                      ; preds = %fft_channel.exit, %4
  ret i32 0

17:                                               ; preds = %.lr.ph, %fft_channel.exit
  %indvars.iv = phi i64 [ %16, %.lr.ph ], [ %indvars.iv.next, %fft_channel.exit ]
  %.val = load ptr, ptr %13, align 8, !tbaa !4
  %18 = getelementptr inbounds nuw i8, ptr %.val, i64 312
  %19 = load ptr, ptr %18, align 8, !tbaa !114
  %20 = getelementptr inbounds nuw i8, ptr %19, i64 96
  %21 = load ptr, ptr %20, align 8, !tbaa !138
  %22 = getelementptr inbounds ptr, ptr %21, i64 %indvars.iv
  %23 = load ptr, ptr %22, align 8, !tbaa !139
  %24 = getelementptr inbounds nuw i8, ptr %.val, i64 368
  %25 = load ptr, ptr %24, align 8, !tbaa !113
  %26 = getelementptr inbounds nuw i8, ptr %25, i64 96
  %27 = load ptr, ptr %26, align 8, !tbaa !138
  %28 = getelementptr inbounds ptr, ptr %27, i64 %indvars.iv
  %29 = load ptr, ptr %28, align 8, !tbaa !139
  %30 = getelementptr inbounds nuw i8, ptr %.val, i64 488
  %31 = load ptr, ptr %30, align 8, !tbaa !35
  %32 = getelementptr inbounds nuw i8, ptr %.val, i64 152
  %33 = load i32, ptr %32, align 8, !tbaa !34
  %34 = getelementptr inbounds nuw i8, ptr %.val, i64 452
  %35 = load i32, ptr %34, align 4, !tbaa !62
  %36 = sub nsw i32 %33, %35
  %37 = getelementptr inbounds nuw i8, ptr %.val, i64 248
  %38 = load ptr, ptr %37, align 8, !tbaa !84
  %39 = getelementptr inbounds float, ptr %38, i64 %indvars.iv
  %40 = load float, ptr %39, align 4, !tbaa !37
  %41 = sext i32 %35 to i64
  %42 = getelementptr inbounds float, ptr %23, i64 %41
  %43 = sext i32 %36 to i64
  %44 = shl nsw i64 %43, 2
  tail call void @llvm.memmove.p0.p0.i64(ptr align 4 %23, ptr align 4 %42, i64 %44, i1 false)
  %45 = getelementptr inbounds float, ptr %23, i64 %43
  %46 = load ptr, ptr %14, align 8, !tbaa !138
  %47 = getelementptr inbounds ptr, ptr %46, i64 %indvars.iv
  %48 = load ptr, ptr %47, align 8, !tbaa !139
  %49 = load i32, ptr %15, align 8, !tbaa !105
  %50 = sext i32 %49 to i64
  %51 = shl nsw i64 %50, 2
  tail call void @llvm.memcpy.p0.p0.i64(ptr align 4 %45, ptr align 1 %48, i64 %51, i1 false)
  %52 = load i32, ptr %15, align 8, !tbaa !105
  %53 = add nsw i32 %52, %36
  %54 = sext i32 %53 to i64
  %55 = getelementptr inbounds float, ptr %23, i64 %54
  %56 = load i32, ptr %34, align 4, !tbaa !62
  %57 = sub nsw i32 %56, %52
  %58 = sext i32 %57 to i64
  %59 = shl nsw i64 %58, 2
  tail call void @llvm.memset.p0.i64(ptr align 4 %55, i8 0, i64 %59, i1 false)
  %60 = icmp sgt i32 %33, 0
  br i1 %60, label %.lr.ph.preheader.i, label %fft_channel.exit

.lr.ph.preheader.i:                               ; preds = %17
  %wide.trip.count.i = zext nneg i32 %33 to i64
  br label %.lr.ph.i

.lr.ph.i:                                         ; preds = %.lr.ph.i, %.lr.ph.preheader.i
  %indvars.iv.i = phi i64 [ 0, %.lr.ph.preheader.i ], [ %indvars.iv.next.i, %.lr.ph.i ]
  %61 = getelementptr inbounds nuw float, ptr %23, i64 %indvars.iv.i
  %62 = load float, ptr %61, align 4, !tbaa !37
  %63 = getelementptr inbounds nuw float, ptr %31, i64 %indvars.iv.i
  %64 = load float, ptr %63, align 4, !tbaa !37
  %65 = fmul nsz float %62, %64
  %66 = fmul nsz float %40, %65
  %67 = getelementptr inbounds nuw float, ptr %29, i64 %indvars.iv.i
  store float %66, ptr %67, align 4, !tbaa !37
  %indvars.iv.next.i = add nuw nsw i64 %indvars.iv.i, 1
  %exitcond.not.i = icmp eq i64 %indvars.iv.next.i, %wide.trip.count.i
  br i1 %exitcond.not.i, label %fft_channel.exit, label %.lr.ph.i, !llvm.loop !167

fft_channel.exit:                                 ; preds = %.lr.ph.i, %17
  %68 = getelementptr inbounds nuw i8, ptr %.val, i64 472
  %69 = load ptr, ptr %68, align 8, !tbaa !168
  %70 = getelementptr inbounds nuw i8, ptr %.val, i64 456
  %71 = load ptr, ptr %70, align 8, !tbaa !75
  %72 = getelementptr inbounds ptr, ptr %71, i64 %indvars.iv
  %73 = load ptr, ptr %72, align 8, !tbaa !169
  %74 = getelementptr inbounds nuw i8, ptr %.val, i64 320
  %75 = load ptr, ptr %74, align 8, !tbaa !115
  %76 = getelementptr inbounds nuw i8, ptr %75, i64 96
  %77 = load ptr, ptr %76, align 8, !tbaa !138
  %78 = getelementptr inbounds ptr, ptr %77, i64 %indvars.iv
  %79 = load ptr, ptr %78, align 8, !tbaa !139
  tail call void %69(ptr noundef %73, ptr noundef %79, ptr noundef %29, i64 noundef 4) #14
  %indvars.iv.next = add nsw i64 %indvars.iv, 1
  %lftr.wideiv = trunc i64 %indvars.iv.next to i32
  %exitcond.not = icmp eq i32 %11, %lftr.wideiv
  br i1 %exitcond.not, label %._crit_edge, label %17, !llvm.loop !171
}